target datalayout = "e-m:e-p270:32:32-p271:32:32-p272:64:64-i64:64-i128:128-f80:128-n8:16:32:64-S128"
target triple = "x86_64-pc-linux-gnu"

; Function Attrs: alwaysinline nounwind willreturn memory(none) uwtable
define internal zeroext i16 @av_bswap16(i16 noundef zeroext %0) #4 {
  %2 = alloca i16, align 2
  store i16 %0, ptr %2, align 2, !tbaa !44
  %3 = load i16, ptr %2, align 2, !tbaa !44
  %4 = zext i16 %3 to i32
  %5 = ashr i32 %4, 8
  %6 = load i16, ptr %2, align 2, !tbaa !44
  %7 = zext i16 %6 to i32
  %8 = shl i32 %7, 8
  %9 = or i32 %5, %8
  %10 = trunc i32 %9 to i16
  store i16 %10, ptr %2, align 2, !tbaa !44
  %11 = load i16, ptr %2, align 2, !tbaa !44
  ret i16 %11
}

; Function Attrs: nounwind uwtable
define internal void @bswap16UV_c(ptr noundef %0, ptr noundef %1, ptr noundef %2, ptr noundef %3, ptr noundef %4, i32 noundef %5, ptr noundef %6, ptr noundef %7) #2 {
  %9 = alloca ptr, align 8
  %10 = alloca ptr, align 8
  %11 = alloca ptr, align 8
  %12 = alloca ptr, align 8
  %13 = alloca ptr, align 8
  %14 = alloca i32, align 4
  %15 = alloca ptr, align 8
  %16 = alloca ptr, align 8
  %17 = alloca i32, align 4
  %18 = alloca ptr, align 8
  %19 = alloca ptr, align 8
  %20 = alloca ptr, align 8
  %21 = alloca ptr, align 8
  store ptr %0, ptr %9, align 8, !tbaa !34
  store ptr %1, ptr %10, align 8, !tbaa !34
  store ptr %2, ptr %11, align 8, !tbaa !34
  store ptr %3, ptr %12, align 8, !tbaa !34
  store ptr %4, ptr %13, align 8, !tbaa !34
  store i32 %5, ptr %14, align 4, !tbaa !30
  store ptr %6, ptr %15, align 8, !tbaa !35
  store ptr %7, ptr %16, align 8, !tbaa !31
  call void @llvm.lifetime.start.p0(i64 4, ptr %17) #9
  call void @llvm.lifetime.start.p0(i64 8, ptr %18) #9
  %22 = load ptr, ptr %12, align 8, !tbaa !34
  store ptr %22, ptr %18, align 8, !tbaa !43
  call void @llvm.lifetime.start.p0(i64 8, ptr %19) #9
  %23 = load ptr, ptr %13, align 8, !tbaa !34
  store ptr %23, ptr %19, align 8, !tbaa !43
  call void @llvm.lifetime.start.p0(i64 8, ptr %20) #9
  %24 = load ptr, ptr %9, align 8, !tbaa !34
  store ptr %24, ptr %20, align 8, !tbaa !43
  call void @llvm.lifetime.start.p0(i64 8, ptr %21) #9
  %25 = load ptr, ptr %10, align 8, !tbaa !34
  store ptr %25, ptr %21, align 8, !tbaa !43
  store i32 0, ptr %17, align 4, !tbaa !30
  br label %26

26:                                               ; preds = %51, %8
  %27 = load i32, ptr %17, align 4, !tbaa !30
  %28 = load i32, ptr %14, align 4, !tbaa !30
  %29 = icmp slt i32 %27, %28
  br i1 %29, label %30, label %54

30:                                               ; preds = %26
  %31 = load ptr, ptr %18, align 8, !tbaa !43
  %32 = load i32, ptr %17, align 4, !tbaa !30
  %33 = sext i32 %32 to i64
  %34 = getelementptr inbounds i16, ptr %31, i64 %33
  %35 = load i16, ptr %34, align 2, !tbaa !44
  %36 = call zeroext i16 @av_bswap16(i16 noundef zeroext %35) #10
  %37 = load ptr, ptr %20, align 8, !tbaa !43
  %38 = load i32, ptr %17, align 4, !tbaa !30
  %39 = sext i32 %38 to i64
  %40 = getelementptr inbounds i16, ptr %37, i64 %39
  store i16 %36, ptr %40, align 2, !tbaa !44
  %41 = load ptr, ptr %19, align 8, !tbaa !43
  %42 = load i32, ptr %17, align 4, !tbaa !30
  %43 = sext i32 %42 to i64
  %44 = getelementptr inbounds i16, ptr %41, i64 %43
  %45 = load i16, ptr %44, align 2, !tbaa !44
  %46 = call zeroext i16 @av_bswap16(i16 noundef zeroext %45) #10
  %47 = load ptr, ptr %21, align 8, !tbaa !43
  %48 = load i32, ptr %17, align 4, !tbaa !30
  %49 = sext i32 %48 to i64
  %50 = getelementptr inbounds i16, ptr %47, i64 %49
  store i16 %46, ptr %50, align 2, !tbaa !44
  br label %51

51:                                               ; preds = %30
  %52 = load i32, ptr %17, align 4, !tbaa !30
  %53 = add nsw i32 %52, 1
  store i32 %53, ptr %17, align 4, !tbaa !30
  br label %26, !llvm.loop !50

54:                                               ; preds = %26
  call void @llvm.lifetime.end.p0(i64 8, ptr %21) #9
  call void @llvm.lifetime.end.p0(i64 8, ptr %20) #9
  call void @llvm.lifetime.end.p0(i64 8, ptr %19) #9
  call void @llvm.lifetime.end.p0(i64 8, ptr %18) #9
  call void @llvm.lifetime.end.p0(i64 4, ptr %17) #9
  ret void
}