; Function Attrs: nofree norecurse nosync nounwind memory(argmem: readwrite) uwtable
define internal void @bswap16UV_c(ptr noundef writeonly captures(none) %0, ptr noundef writeonly captures(none) %1, ptr readnone captures(none) %2, ptr noundef readonly captures(none) %3, ptr noundef readonly captures(none) %4, i32 noundef %5, ptr readnone captures(none) %6, ptr readnone captures(none) %7) #1 {
  %9 = icmp sgt i32 %5, 0
  br i1 %9, label %.lr.ph.preheader, label %._crit_edge

.lr.ph.preheader:                                 ; preds = %8
  %wide.trip.count = zext nneg i32 %5 to i64
  br label %.lr.ph

.lr.ph:                                           ; preds = %.lr.ph.preheader, %.lr.ph
  %indvars.iv = phi i64 [ 0, %.lr.ph.preheader ], [ %indvars.iv.next, %.lr.ph ]
  %10 = getelementptr inbounds nuw i16, ptr %3, i64 %indvars.iv
  %11 = load i16, ptr %10, align 2, !tbaa !43
  %12 = tail call i16 @llvm.bswap.i16(i16 %11)
  %13 = getelementptr inbounds nuw i16, ptr %0, i64 %indvars.iv
  store i16 %12, ptr %13, align 2, !tbaa !43
  %14 = getelementptr inbounds nuw i16, ptr %4, i64 %indvars.iv
  %15 = load i16, ptr %14, align 2, !tbaa !43
  %16 = tail call i16 @llvm.bswap.i16(i16 %15)
  %17 = getelementptr inbounds nuw i16, ptr %1, i64 %indvars.iv
  store i16 %16, ptr %17, align 2, !tbaa !43
  %indvars.iv.next = add nuw nsw i64 %indvars.iv, 1
  %exitcond.not = icmp eq i64 %indvars.iv.next, %wide.trip.count
  br i1 %exitcond.not, label %._crit_edge, label %.lr.ph, !llvm.loop !54

._crit_edge:                                      ; preds = %.lr.ph, %8
  ret void
}